target datalayout = "e-m:e-p270:32:32-p271:32:32-p272:64:64-i64:64-i128:128-f80:128-n8:16:32:64-S128"
target triple = "x86_64-pc-linux-gnu"

%struct.ForEachState = type { ptr, i32 }
%struct.List = type { i32, i32, i32, ptr, [0 x %union.ListCell] }
%union.ListCell = type { ptr }

@.str.1 = private unnamed_addr constant [11 x i8] c"miscinit.c\00", align 1
@lock_files = internal global ptr null, align 8
@IsPostmasterEnvironment = external global i8, align 1
@.str.85 = private unnamed_addr constant [29 x i8] c"database system is shut down\00", align 1
@__func__.UnlinkLockFiles = private unnamed_addr constant [16 x i8] c"UnlinkLockFiles\00", align 1

; Function Attrs: nounwind uwtable
define internal void @UnlinkLockFiles(i32 noundef %0, i64 noundef %1) #0 {
  %3 = alloca i32, align 4
  %4 = alloca i64, align 8
  %5 = alloca ptr, align 8
  %6 = alloca %struct.ForEachState, align 8
  %7 = alloca ptr, align 8
  store i32 %0, ptr %3, align 4
  store i64 %1, ptr %4, align 8
  call void @llvm.lifetime.start.p0(i64 8, ptr %5) #12
  call void @llvm.lifetime.start.p0(i64 16, ptr %6) #12
  %8 = getelementptr inbounds nuw %struct.ForEachState, ptr %6, i32 0, i32 0
  %9 = load ptr, ptr @lock_files, align 8
  store ptr %9, ptr %8, align 8
  %10 = getelementptr inbounds nuw %struct.ForEachState, ptr %6, i32 0, i32 1
  store i32 0, ptr %10, align 8
  %11 = getelementptr i8, ptr %6, i64 12
  call void @llvm.memset.p0.i64(ptr align 4 %11, i8 0, i64 4, i1 false)
  br label %12

12:                                               ; preds = %43, %2
  %13 = getelementptr inbounds nuw %struct.ForEachState, ptr %6, i32 0, i32 0
  %14 = load ptr, ptr %13, align 8
  %15 = icmp ne ptr %14, null
  br i1 %15, label %16, label %33

16:                                               ; preds = %12
  %17 = getelementptr inbounds nuw %struct.ForEachState, ptr %6, i32 0, i32 1
  %18 = load i32, ptr %17, align 8
  %19 = getelementptr inbounds nuw %struct.ForEachState, ptr %6, i32 0, i32 0
  %20 = load ptr, ptr %19, align 8
  %21 = getelementptr inbounds nuw %struct.List, ptr %20, i32 0, i32 1
  %22 = load i32, ptr %21, align 4
  %23 = icmp slt i32 %18, %22
  br i1 %23, label %24, label %33

24:                                               ; preds = %16
  %25 = getelementptr inbounds nuw %struct.ForEachState, ptr %6, i32 0, i32 0
  %26 = load ptr, ptr %25, align 8
  %27 = getelementptr inbounds nuw %struct.List, ptr %26, i32 0, i32 3
  %28 = load ptr, ptr %27, align 8
  %29 = getelementptr inbounds nuw %struct.ForEachState, ptr %6, i32 0, i32 1
  %30 = load i32, ptr %29, align 8
  %31 = sext i32 %30 to i64
  %32 = getelementptr inbounds %union.ListCell, ptr %28, i64 %31
  store ptr %32, ptr %5, align 8
  br label %34

33:                                               ; preds = %16, %12
  store ptr null, ptr %5, align 8
  br label %34

34:                                               ; preds = %33, %24
  %35 = phi i32 [ 1, %24 ], [ 0, %33 ]
  %36 = icmp ne i32 %35, 0
  br i1 %36, label %38, label %37

37:                                               ; preds = %34
  call void @llvm.lifetime.end.p0(i64 16, ptr %6) #12
  br label %47

38:                                               ; preds = %34
  call void @llvm.lifetime.start.p0(i64 8, ptr %7) #12
  %39 = load ptr, ptr %5, align 8
  %40 = load ptr, ptr %39, align 8
  store ptr %40, ptr %7, align 8
  %41 = load ptr, ptr %7, align 8
  %42 = call i32 @unlink(ptr noundef %41) #12
  call void @llvm.lifetime.end.p0(i64 8, ptr %7) #12
  br label %43

43:                                               ; preds = %38
  %44 = getelementptr inbounds nuw %struct.ForEachState, ptr %6, i32 0, i32 1
  %45 = load i32, ptr %44, align 8
  %46 = add i32 %45, 1
  store i32 %46, ptr %44, align 8
  br label %12, !llvm.loop !12

47:                                               ; preds = %37
  store ptr null, ptr @lock_files, align 8
  br label %48

48:                                               ; preds = %47
  %49 = load i8, ptr @IsPostmasterEnvironment, align 1, !range !4, !noundef !5
  %50 = trunc i8 %49 to i1
  %51 = select i1 %50, i32 15, i32 18
  %52 = call i1 @llvm.is.constant.i32(i32 %51)
  br i1 %52, label %53, label %63

53:                                               ; preds = %48
  %54 = load i8, ptr @IsPostmasterEnvironment, align 1, !range !4, !noundef !5
  %55 = trunc i8 %54 to i1
  %56 = select i1 %55, i32 15, i32 18
  %57 = icmp sge i32 %56, 21
  br i1 %57, label %58, label %63

58:                                               ; preds = %53
  %59 = load i8, ptr @IsPostmasterEnvironment, align 1, !range !4, !noundef !5
  %60 = trunc i8 %59 to i1
  %61 = select i1 %60, i32 15, i32 18
  %62 = call zeroext i1 @errstart_cold(i32 noundef %61, ptr noundef null) #13
  br i1 %62, label %68, label %70

63:                                               ; preds = %53, %48
  %64 = load i8, ptr @IsPostmasterEnvironment, align 1, !range !4, !noundef !5
  %65 = trunc i8 %64 to i1
  %66 = select i1 %65, i32 15, i32 18
  %67 = call zeroext i1 @errstart(i32 noundef %66, ptr noundef null)
  br i1 %67, label %68, label %70

68:                                               ; preds = %63, %58
  %69 = call i32 (ptr, ...) @errmsg(ptr noundef @.str.85)
  call void @errfinish(ptr noundef @.str.1, i32 noundef 1194, ptr noundef @__func__.UnlinkLockFiles)
  br label %70

70:                                               ; preds = %68, %63, %58
  %71 = load i8, ptr @IsPostmasterEnvironment, align 1, !range !4, !noundef !5
  %72 = trunc i8 %71 to i1
  %73 = select i1 %72, i32 15, i32 18
  %74 = call i1 @llvm.is.constant.i32(i32 %73)
  br i1 %74, label %75, label %81

75:                                               ; preds = %70
  %76 = load i8, ptr @IsPostmasterEnvironment, align 1, !range !4, !noundef !5
  %77 = trunc i8 %76 to i1
  %78 = select i1 %77, i32 15, i32 18
  %79 = icmp sge i32 %78, 21
  br i1 %79, label %80, label %81

80:                                               ; preds = %75
  unreachable

81:                                               ; preds = %75, %70
  br label %82

82:                                               ; preds = %81
  br label %83

83:                                               ; preds = %82
  call void @llvm.lifetime.end.p0(i64 8, ptr %5) #12
  ret void
}