; Function Attrs: nounwind uwtable
define internal void @UnlinkLockFiles(i32 %0, i64 %1) #0 {
  %3 = load ptr, ptr @lock_files, align 8
  %4 = getelementptr inbounds nuw i8, ptr %3, i64 4
  %.not = icmp eq ptr %3, null
  br i1 %.not, label %._crit_edge, label %.lr.ph

.lr.ph:                                           ; preds = %2
  %5 = getelementptr inbounds nuw i8, ptr %3, i64 16
  %6 = load i32, ptr %4, align 4
  %7 = icmp sgt i32 %6, 0
  br i1 %7, label %.lr.ph13, label %._crit_edge

._crit_edge:                                      ; preds = %.lr.ph13, %.lr.ph, %2
  store ptr null, ptr @lock_files, align 8
  %8 = load i8, ptr @IsPostmasterEnvironment, align 1, !range !4, !noundef !5
  %9 = trunc nuw i8 %8 to i1
  %10 = select i1 %9, i32 15, i32 18
  %11 = tail call zeroext i1 @errstart(i32 noundef %10, ptr noundef null) #22
  br i1 %11, label %19, label %21

.lr.ph13:                                         ; preds = %.lr.ph, %.lr.ph13
  %indvars.iv = phi i64 [ %indvars.iv.next, %.lr.ph13 ], [ 0, %.lr.ph ]
  %12 = load ptr, ptr %5, align 8
  %13 = getelementptr inbounds nuw %union.ListCell, ptr %12, i64 %indvars.iv
  %14 = load ptr, ptr %13, align 8
  %15 = tail call i32 @unlink(ptr noundef %14) #22
  %indvars.iv.next = add nuw nsw i64 %indvars.iv, 1
  %16 = load i32, ptr %4, align 4
  %17 = sext i32 %16 to i64
  %18 = icmp slt i64 %indvars.iv.next, %17
  br i1 %18, label %.lr.ph13, label %._crit_edge

19:                                               ; preds = %._crit_edge
  %20 = tail call i32 (ptr, ...) @errmsg(ptr noundef nonnull @.str.85) #22
  tail call void @errfinish(ptr noundef nonnull @.str.1, i32 noundef 1194, ptr noundef nonnull @__func__.UnlinkLockFiles) #22
  br label %21

21:                                               ; preds = %19, %._crit_edge
  ret void
}